target datalayout = "e-m:e-p270:32:32-p271:32:32-p272:64:64-i64:64-i128:128-f80:128-n8:16:32:64-S128"
target triple = "x86_64-unknown-linux-gnu"

%"class.hermes::parser::detail::Param" = type { i32 }
%"class.hermes::parser::detail::JSParserImpl" = type { ptr, ptr, %"class.hermes::parser::JSLexer", ptr, i32, ptr, i32, i8, i8, i8, %"class.llvh::SmallVector.15", i32, i8, i8, ptr, ptr, ptr, ptr, ptr, ptr, ptr, ptr, ptr, ptr, ptr, ptr, ptr, ptr, ptr, ptr, ptr, ptr, ptr, ptr, ptr, ptr, ptr, ptr, ptr, ptr, ptr, ptr, ptr, ptr, ptr, ptr, ptr, ptr, ptr, ptr, ptr, ptr, ptr, ptr, ptr, ptr, ptr, ptr, ptr, ptr, ptr, ptr, ptr, ptr, ptr, ptr, ptr, ptr, ptr, ptr, ptr, ptr, ptr, ptr, ptr, ptr, ptr, ptr, ptr, ptr, ptr, ptr, ptr, ptr, ptr, [122 x ptr] }
%"class.hermes::parser::JSLexer" = type { ptr, ptr, i32, %"class.std::unique_ptr.2", ptr, ptr, i8, i8, i8, i8, [4 x i8], %"class.hermes::parser::Token", %"class.llvh::SMLoc", ptr, ptr, ptr, i8, %"class.llvh::SmallString", %"class.llvh::SmallString", [46 x ptr], %"class.std::vector", %"class.std::vector.10" }
%"class.std::unique_ptr.2" = type { %"struct.std::__uniq_ptr_data.3" }
%"struct.std::__uniq_ptr_data.3" = type { %"class.std::__uniq_ptr_impl.4" }
%"class.std::__uniq_ptr_impl.4" = type { %"class.std::tuple.5" }
%"class.std::tuple.5" = type { %"struct.std::_Tuple_impl.6" }
%"struct.std::_Tuple_impl.6" = type { %"struct.std::_Head_base.9" }
%"struct.std::_Head_base.9" = type { ptr }
%"class.hermes::parser::Token" = type <{ i32, [4 x i8], %"class.llvh::SMRange", double, ptr, ptr, ptr, ptr, i8, [7 x i8] }>
%"class.llvh::SMRange" = type { %"class.llvh::SMLoc", %"class.llvh::SMLoc" }
%"class.llvh::SMLoc" = type { ptr }
%"class.llvh::SmallString" = type { %"class.llvh::SmallVector" }
%"class.llvh::SmallVector" = type { %"class.llvh::SmallVectorImpl", %"struct.llvh::SmallVectorStorage" }
%"class.llvh::SmallVectorImpl" = type { %"class.llvh::SmallVectorTemplateBase" }
%"class.llvh::SmallVectorTemplateBase" = type { %"class.llvh::SmallVectorTemplateCommon" }
%"class.llvh::SmallVectorTemplateCommon" = type { %"class.llvh::SmallVectorBase" }
%"class.llvh::SmallVectorBase" = type { ptr, i32, i32 }
%"struct.llvh::SmallVectorStorage" = type { [256 x %"struct.llvh::AlignedCharArrayUnion"] }
%"struct.llvh::AlignedCharArrayUnion" = type { %"struct.llvh::AlignedCharArray" }
%"struct.llvh::AlignedCharArray" = type { [1 x i8] }
%"class.std::vector" = type { %"struct.std::_Vector_base" }
%"struct.std::_Vector_base" = type { %"struct.std::_Vector_base<hermes::parser::StoredComment, std::allocator<hermes::parser::StoredComment>>::_Vector_impl" }
%"struct.std::_Vector_base<hermes::parser::StoredComment, std::allocator<hermes::parser::StoredComment>>::_Vector_impl" = type { %"struct.std::_Vector_base<hermes::parser::StoredComment, std::allocator<hermes::parser::StoredComment>>::_Vector_impl_data" }
%"struct.std::_Vector_base<hermes::parser::StoredComment, std::allocator<hermes::parser::StoredComment>>::_Vector_impl_data" = type { ptr, ptr, ptr }
%"class.std::vector.10" = type { %"struct.std::_Vector_base.11" }
%"struct.std::_Vector_base.11" = type { %"struct.std::_Vector_base<hermes::parser::StoredToken, std::allocator<hermes::parser::StoredToken>>::_Vector_impl" }
%"struct.std::_Vector_base<hermes::parser::StoredToken, std::allocator<hermes::parser::StoredToken>>::_Vector_impl" = type { %"struct.std::_Vector_base<hermes::parser::StoredToken, std::allocator<hermes::parser::StoredToken>>::_Vector_impl_data" }
%"struct.std::_Vector_base<hermes::parser::StoredToken, std::allocator<hermes::parser::StoredToken>>::_Vector_impl_data" = type { ptr, ptr, ptr }
%"class.llvh::SmallVector.15" = type { %"class.llvh::SmallVectorImpl.16", %"struct.llvh::SmallVectorStorage.19" }
%"class.llvh::SmallVectorImpl.16" = type { %"class.llvh::SmallVectorTemplateBase.17" }
%"class.llvh::SmallVectorTemplateBase.17" = type { %"class.llvh::SmallVectorTemplateCommon.18" }
%"class.llvh::SmallVectorTemplateCommon.18" = type { %"class.llvh::SmallVectorBase" }
%"struct.llvh::SmallVectorStorage.19" = type { [1 x %"struct.llvh::AlignedCharArrayUnion.20"] }
%"struct.llvh::AlignedCharArrayUnion.20" = type { %"struct.llvh::AlignedCharArray.21" }
%"struct.llvh::AlignedCharArray.21" = type { [8 x i8] }
%"class.llvh::Optional.120" = type { %"struct.llvh::optional_detail::OptionalStorage.121" }
%"struct.llvh::optional_detail::OptionalStorage.121" = type { %"struct.llvh::AlignedCharArrayUnion.122", i8, [7 x i8] }
%"struct.llvh::AlignedCharArrayUnion.122" = type { %"struct.llvh::AlignedCharArray.21" }
%"class.llvh::Optional.217" = type { %"struct.llvh::optional_detail::OptionalStorage.218" }
%"struct.llvh::optional_detail::OptionalStorage.218" = type { %"struct.llvh::AlignedCharArrayUnion.219", i8, [7 x i8] }
%"struct.llvh::AlignedCharArrayUnion.219" = type { %"struct.llvh::AlignedCharArray.21" }
%"class.llvh::Optional.221" = type { %"struct.llvh::optional_detail::OptionalStorage.222" }
%"struct.llvh::optional_detail::OptionalStorage.222" = type { %"struct.llvh::AlignedCharArrayUnion.223", i8, [7 x i8] }
%"struct.llvh::AlignedCharArrayUnion.223" = type { %"struct.llvh::AlignedCharArray.21" }

; Function Attrs: mustprogress nounwind uwtable
define linkonce_odr hidden noundef ptr @_ZN4llvh8OptionalIPN6hermes6ESTree17ObjectPatternNodeEE10getPointerEv(ptr noundef nonnull align 8 dereferenceable(16) %this) #0 comdat align 2 {
entry:
  %this.addr = alloca ptr, align 8
  store ptr %this, ptr %this.addr, align 8
  %this1 = load ptr, ptr %this.addr, align 8
  %Storage = getelementptr inbounds %"class.llvh::Optional.221", ptr %this1, i32 0, i32 0
  %storage = getelementptr inbounds %"struct.llvh::optional_detail::OptionalStorage.222", ptr %Storage, i32 0, i32 0
  %buffer = getelementptr inbounds %"struct.llvh::AlignedCharArray.21", ptr %storage, i32 0, i32 0
  %arraydecay = getelementptr inbounds [8 x i8], ptr %buffer, i64 0, i64 0
  ret ptr %arraydecay
}

; Function Attrs: mustprogress nounwind uwtable
define linkonce_odr hidden void @_ZN4llvh15optional_detail15OptionalStorageIPN6hermes6ESTree4NodeELb1EEC2ERKS5_(ptr noundef nonnull align 8 dereferenceable(9) %this, ptr noundef nonnull align 8 dereferenceable(8) %y) unnamed_addr #0 comdat align 2 {
entry:
  %this.addr = alloca ptr, align 8
  %y.addr = alloca ptr, align 8
  store ptr %this, ptr %this.addr, align 8
  store ptr %y, ptr %y.addr, align 8
  %this1 = load ptr, ptr %this.addr, align 8
  %hasVal = getelementptr inbounds %"struct.llvh::optional_detail::OptionalStorage.121", ptr %this1, i32 0, i32 1
  store i8 1, ptr %hasVal, align 8
  %storage2 = getelementptr inbounds %"struct.llvh::optional_detail::OptionalStorage.121", ptr %this1, i32 0, i32 0
  %buffer = getelementptr inbounds %"struct.llvh::AlignedCharArray.21", ptr %storage2, i32 0, i32 0
  %arraydecay = getelementptr inbounds [8 x i8], ptr %buffer, i64 0, i64 0
  %0 = load ptr, ptr %y.addr, align 8
  %1 = load ptr, ptr %0, align 8
  store ptr %1, ptr %arraydecay, align 8
  ret void
}

; Function Attrs: mustprogress nounwind uwtable
define linkonce_odr hidden noundef ptr @_ZN4llvh8OptionalIPN6hermes6ESTree16ArrayPatternNodeEE10getPointerEv(ptr noundef nonnull align 8 dereferenceable(16) %this) #0 comdat align 2 {
entry:
  %this.addr = alloca ptr, align 8
  store ptr %this, ptr %this.addr, align 8
  %this1 = load ptr, ptr %this.addr, align 8
  %Storage = getelementptr inbounds %"class.llvh::Optional.217", ptr %this1, i32 0, i32 0
  %storage = getelementptr inbounds %"struct.llvh::optional_detail::OptionalStorage.218", ptr %Storage, i32 0, i32 0
  %buffer = getelementptr inbounds %"struct.llvh::AlignedCharArray.21", ptr %storage, i32 0, i32 0
  %arraydecay = getelementptr inbounds [8 x i8], ptr %buffer, i64 0, i64 0
  ret ptr %arraydecay
}

; Function Attrs: mustprogress nounwind uwtable
define linkonce_odr hidden void @_ZN4llvh15optional_detail15OptionalStorageIPN6hermes6ESTree4NodeELb1EEC2Ev(ptr noundef nonnull align 8 dereferenceable(9) %this) unnamed_addr #0 comdat align 2 {
entry:
  %this.addr = alloca ptr, align 8
  store ptr %this, ptr %this.addr, align 8
  %this1 = load ptr, ptr %this.addr, align 8
  %hasVal = getelementptr inbounds %"struct.llvh::optional_detail::OptionalStorage.121", ptr %this1, i32 0, i32 1
  store i8 0, ptr %hasVal, align 8
  ret void
}

; Function Attrs: mustprogress nounwind uwtable
define linkonce_odr hidden noundef i32 @_ZNK6hermes6parser5Token7getKindEv(ptr noundef nonnull align 8 dereferenceable(65) %this) #0 comdat align 2 {
entry:
  %this.addr = alloca ptr, align 8
  store ptr %this, ptr %this.addr, align 8
  %this1 = load ptr, ptr %this.addr, align 8
  %kind_ = getelementptr inbounds %"class.hermes::parser::Token", ptr %this1, i32 0, i32 0
  %0 = load i32, ptr %kind_, align 8
  ret i32 %0
}

; Function Attrs: mustprogress nounwind uwtable
define linkonce_odr hidden noundef nonnull align 8 dereferenceable(8) ptr @_ZNR4llvh8OptionalIPN6hermes6ESTree17ObjectPatternNodeEEdeEv(ptr noundef nonnull align 8 dereferenceable(16) %this) #0 comdat align 2 {
entry:
  %this.addr = alloca ptr, align 8
  store ptr %this, ptr %this.addr, align 8
  %this1 = load ptr, ptr %this.addr, align 8
  %call = call noundef ptr @_ZN4llvh8OptionalIPN6hermes6ESTree17ObjectPatternNodeEE10getPointerEv(ptr noundef nonnull align 8 dereferenceable(16) %this1)
  ret ptr %call
}

; Function Attrs: mustprogress nounwind uwtable
define linkonce_odr hidden noundef zeroext i1 @_ZNK4llvh8OptionalIPN6hermes6ESTree17ObjectPatternNodeEEcvbEv(ptr noundef nonnull align 8 dereferenceable(16) %this) #0 comdat align 2 {
entry:
  %this.addr = alloca ptr, align 8
  store ptr %this, ptr %this.addr, align 8
  %this1 = load ptr, ptr %this.addr, align 8
  %Storage = getelementptr inbounds %"class.llvh::Optional.221", ptr %this1, i32 0, i32 0
  %hasVal = getelementptr inbounds %"struct.llvh::optional_detail::OptionalStorage.222", ptr %Storage, i32 0, i32 1
  %0 = load i8, ptr %hasVal, align 8
  %tobool = trunc i8 %0 to i1
  ret i1 %tobool
}

; Function Attrs: mustprogress nounwind uwtable
define linkonce_odr hidden void @_ZN4llvh8OptionalIPN6hermes6ESTree4NodeEEC2EOS4_(ptr noundef nonnull align 8 dereferenceable(16) %this, ptr noundef nonnull align 8 dereferenceable(8) %y) unnamed_addr #0 comdat align 2 {
entry:
  %this.addr = alloca ptr, align 8
  %y.addr = alloca ptr, align 8
  store ptr %this, ptr %this.addr, align 8
  store ptr %y, ptr %y.addr, align 8
  %this1 = load ptr, ptr %this.addr, align 8
  %Storage = getelementptr inbounds %"class.llvh::Optional.120", ptr %this1, i32 0, i32 0
  %0 = load ptr, ptr %y.addr, align 8
  call void @_ZN4llvh15optional_detail15OptionalStorageIPN6hermes6ESTree4NodeELb1EEC2ERKS5_(ptr noundef nonnull align 8 dereferenceable(9) %Storage, ptr noundef nonnull align 8 dereferenceable(8) %0)
  ret void
}

; Function Attrs: mustprogress nounwind uwtable
define linkonce_odr hidden noundef nonnull align 8 dereferenceable(8) ptr @_ZNR4llvh8OptionalIPN6hermes6ESTree16ArrayPatternNodeEEdeEv(ptr noundef nonnull align 8 dereferenceable(16) %this) #0 comdat align 2 {
entry:
  %this.addr = alloca ptr, align 8
  store ptr %this, ptr %this.addr, align 8
  %this1 = load ptr, ptr %this.addr, align 8
  %call = call noundef ptr @_ZN4llvh8OptionalIPN6hermes6ESTree16ArrayPatternNodeEE10getPointerEv(ptr noundef nonnull align 8 dereferenceable(16) %this1)
  ret ptr %call
}

; Function Attrs: mustprogress nounwind uwtable
define linkonce_odr hidden void @_ZN4llvh8OptionalIPN6hermes6ESTree4NodeEEC2ENS_8NoneTypeE(ptr noundef nonnull align 8 dereferenceable(16) %this, i32 noundef %0) unnamed_addr #0 comdat align 2 {
entry:
  %this.addr = alloca ptr, align 8
  %.addr = alloca i32, align 4
  store ptr %this, ptr %this.addr, align 8
  store i32 %0, ptr %.addr, align 4
  %this1 = load ptr, ptr %this.addr, align 8
  %Storage = getelementptr inbounds %"class.llvh::Optional.120", ptr %this1, i32 0, i32 0
  call void @_ZN4llvh15optional_detail15OptionalStorageIPN6hermes6ESTree4NodeELb1EEC2Ev(ptr noundef nonnull align 8 dereferenceable(9) %Storage) #10
  ret void
}

; Function Attrs: mustprogress nounwind uwtable
define linkonce_odr hidden noundef zeroext i1 @_ZNK4llvh8OptionalIPN6hermes6ESTree16ArrayPatternNodeEEcvbEv(ptr noundef nonnull align 8 dereferenceable(16) %this) #0 comdat align 2 {
entry:
  %this.addr = alloca ptr, align 8
  store ptr %this, ptr %this.addr, align 8
  %this1 = load ptr, ptr %this.addr, align 8
  %Storage = getelementptr inbounds %"class.llvh::Optional.217", ptr %this1, i32 0, i32 0
  %hasVal = getelementptr inbounds %"struct.llvh::optional_detail::OptionalStorage.218", ptr %Storage, i32 0, i32 1
  %0 = load i8, ptr %hasVal, align 8
  %tobool = trunc i8 %0 to i1
  ret i1 %tobool
}

; Function Attrs: mustprogress nounwind uwtable
define linkonce_odr hidden noundef zeroext i1 @_ZNK6hermes6parser6detail12JSParserImpl5checkENS0_9TokenKindE(ptr noundef nonnull align 8 dereferenceable(2752) %this, i32 noundef %kind) #0 comdat align 2 {
entry:
  %this.addr = alloca ptr, align 8
  %kind.addr = alloca i32, align 4
  store ptr %this, ptr %this.addr, align 8
  store i32 %kind, ptr %kind.addr, align 4
  %this1 = load ptr, ptr %this.addr, align 8
  %tok_ = getelementptr inbounds %"class.hermes::parser::detail::JSParserImpl", ptr %this1, i32 0, i32 3
  %0 = load ptr, ptr %tok_, align 8
  %call = call noundef i32 @_ZNK6hermes6parser5Token7getKindEv(ptr noundef nonnull align 8 dereferenceable(65) %0)
  %1 = load i32, ptr %kind.addr, align 4
  %cmp = icmp eq i32 %call, %1
  ret i1 %cmp
}

; Function Attrs: mustprogress nounwind uwtable
define hidden { i64, i8 } @_ZN6hermes6parser6detail12JSParserImpl19parseBindingPatternENS1_5ParamE(ptr noundef nonnull align 8 dereferenceable(2752) %this, i32 %param.coerce) #0 align 2 {
entry:
  %retval = alloca %"class.llvh::Optional.120", align 8
  %param = alloca %"class.hermes::parser::detail::Param", align 4
  %this.addr = alloca ptr, align 8
  %optAB = alloca %"class.llvh::Optional.217", align 8
  %agg.tmp = alloca %"class.hermes::parser::detail::Param", align 4
  %ref.tmp = alloca ptr, align 8
  %optOB = alloca %"class.llvh::Optional.221", align 8
  %agg.tmp8 = alloca %"class.hermes::parser::detail::Param", align 4
  %ref.tmp15 = alloca ptr, align 8
  %coerce.dive = getelementptr inbounds %"class.hermes::parser::detail::Param", ptr %param, i32 0, i32 0
  store i32 %param.coerce, ptr %coerce.dive, align 4
  store ptr %this, ptr %this.addr, align 8
  %this1 = load ptr, ptr %this.addr, align 8
  %call = call noundef zeroext i1 @_ZNK6hermes6parser6detail12JSParserImpl5checkENS0_9TokenKindE(ptr noundef nonnull align 8 dereferenceable(2752) %this1, i32 noundef 55)
  br i1 %call, label %if.then, label %if.else

if.then:                                          ; preds = %entry
  call void @llvm.memcpy.p0.p0.i64(ptr align 4 %agg.tmp, ptr align 4 %param, i64 4, i1 false)
  %coerce.dive2 = getelementptr inbounds %"class.hermes::parser::detail::Param", ptr %agg.tmp, i32 0, i32 0
  %0 = load i32, ptr %coerce.dive2, align 4
  %call3 = call { i64, i8 } @_ZN6hermes6parser6detail12JSParserImpl24parseArrayBindingPatternENS1_5ParamE(ptr noundef nonnull align 8 dereferenceable(2752) %this1, i32 %0)
  %coerce.dive4 = getelementptr inbounds %"class.llvh::Optional.217", ptr %optAB, i32 0, i32 0
  %1 = getelementptr inbounds { i64, i8 }, ptr %coerce.dive4, i32 0, i32 0
  %2 = extractvalue { i64, i8 } %call3, 0
  store i64 %2, ptr %1, align 8
  %3 = getelementptr inbounds { i64, i8 }, ptr %coerce.dive4, i32 0, i32 1
  %4 = extractvalue { i64, i8 } %call3, 1
  store i8 %4, ptr %3, align 8
  %call5 = call noundef zeroext i1 @_ZNK4llvh8OptionalIPN6hermes6ESTree16ArrayPatternNodeEEcvbEv(ptr noundef nonnull align 8 dereferenceable(16) %optAB)
  br i1 %call5, label %if.end, label %if.then6

if.then6:                                         ; preds = %if.then
  call void @_ZN4llvh8OptionalIPN6hermes6ESTree4NodeEEC2ENS_8NoneTypeE(ptr noundef nonnull align 8 dereferenceable(16) %retval, i32 noundef 1)
  br label %return

if.end:                                           ; preds = %if.then
  %call7 = call noundef nonnull align 8 dereferenceable(8) ptr @_ZNR4llvh8OptionalIPN6hermes6ESTree16ArrayPatternNodeEEdeEv(ptr noundef nonnull align 8 dereferenceable(16) %optAB)
  %5 = load ptr, ptr %call7, align 8
  store ptr %5, ptr %ref.tmp, align 8
  call void @_ZN4llvh8OptionalIPN6hermes6ESTree4NodeEEC2EOS4_(ptr noundef nonnull align 8 dereferenceable(16) %retval, ptr noundef nonnull align 8 dereferenceable(8) %ref.tmp)
  br label %return

if.else:                                          ; preds = %entry
  call void @llvm.memcpy.p0.p0.i64(ptr align 4 %agg.tmp8, ptr align 4 %param, i64 4, i1 false)
  %coerce.dive9 = getelementptr inbounds %"class.hermes::parser::detail::Param", ptr %agg.tmp8, i32 0, i32 0
  %6 = load i32, ptr %coerce.dive9, align 4
  %call10 = call { i64, i8 } @_ZN6hermes6parser6detail12JSParserImpl25parseObjectBindingPatternENS1_5ParamE(ptr noundef nonnull align 8 dereferenceable(2752) %this1, i32 %6)
  %coerce.dive11 = getelementptr inbounds %"class.llvh::Optional.221", ptr %optOB, i32 0, i32 0
  %7 = getelementptr inbounds { i64, i8 }, ptr %coerce.dive11, i32 0, i32 0
  %8 = extractvalue { i64, i8 } %call10, 0
  store i64 %8, ptr %7, align 8
  %9 = getelementptr inbounds { i64, i8 }, ptr %coerce.dive11, i32 0, i32 1
  %10 = extractvalue { i64, i8 } %call10, 1
  store i8 %10, ptr %9, align 8
  %call12 = call noundef zeroext i1 @_ZNK4llvh8OptionalIPN6hermes6ESTree17ObjectPatternNodeEEcvbEv(ptr noundef nonnull align 8 dereferenceable(16) %optOB)
  br i1 %call12, label %if.end14, label %if.then13

if.then13:                                        ; preds = %if.else
  call void @_ZN4llvh8OptionalIPN6hermes6ESTree4NodeEEC2ENS_8NoneTypeE(ptr noundef nonnull align 8 dereferenceable(16) %retval, i32 noundef 1)
  br label %return

if.end14:                                         ; preds = %if.else
  %call16 = call noundef nonnull align 8 dereferenceable(8) ptr @_ZNR4llvh8OptionalIPN6hermes6ESTree17ObjectPatternNodeEEdeEv(ptr noundef nonnull align 8 dereferenceable(16) %optOB)
  %11 = load ptr, ptr %call16, align 8
  store ptr %11, ptr %ref.tmp15, align 8
  call void @_ZN4llvh8OptionalIPN6hermes6ESTree4NodeEEC2EOS4_(ptr noundef nonnull align 8 dereferenceable(16) %retval, ptr noundef nonnull align 8 dereferenceable(8) %ref.tmp15)
  br label %return

return:                                           ; preds = %if.end14, %if.then13, %if.end, %if.then6
  %coerce.dive17 = getelementptr inbounds %"class.llvh::Optional.120", ptr %retval, i32 0, i32 0
  %12 = load { i64, i8 }, ptr %coerce.dive17, align 8
  ret { i64, i8 } %12
}