; Function Attrs: mustprogress nounwind uwtable
define hidden { i64, i8 } @_ZN6hermes6parser6detail12JSParserImpl19parseBindingPatternENS1_5ParamE(ptr noundef nonnull align 8 dereferenceable(2752) %this, i32 %param.coerce) local_unnamed_addr #0 align 2 {
entry:
  %tok_.i = getelementptr inbounds i8, ptr %this, i64 1144
  %0 = load ptr, ptr %tok_.i, align 8
  %1 = load i32, ptr %0, align 8
  %cmp.i = icmp eq i32 %1, 55
  br i1 %cmp.i, label %if.then, label %if.else

if.then:                                          ; preds = %entry
  %call3 = tail call { i64, i8 } @_ZN6hermes6parser6detail12JSParserImpl24parseArrayBindingPatternENS1_5ParamE(ptr noundef nonnull align 8 dereferenceable(2752) %this, i32 %param.coerce)
  br label %return

if.else:                                          ; preds = %entry
  %call10 = tail call { i64, i8 } @_ZN6hermes6parser6detail12JSParserImpl25parseObjectBindingPatternENS1_5ParamE(ptr noundef nonnull align 8 dereferenceable(2752) %this, i32 %param.coerce)
  br label %return

return:                                           ; preds = %if.else, %if.then
  %call10.pn = phi { i64, i8 } [ %call10, %if.else ], [ %call3, %if.then ]
  %.sink10.in = extractvalue { i64, i8 } %call10.pn, 1
  %.sink10 = and i8 %.sink10.in, 1
  %.sink = extractvalue { i64, i8 } %call10.pn, 0
  %tobool.i4.not.not = icmp eq i8 %.sink10, 0
  %spec.select8 = select i1 %tobool.i4.not.not, i64 undef, i64 %.sink
  %.fca.0.insert = insertvalue { i64, i8 } poison, i64 %spec.select8, 0
  %.fca.1.insert = insertvalue { i64, i8 } %.fca.0.insert, i8 %.sink10, 1
  ret { i64, i8 } %.fca.1.insert
}